; Function Attrs: mustprogress uwtable
define void @_ZN7rocksdb14ManifestTailer20CheckIterationResultERKNS_3log6ReaderEPNS_6StatusE(ptr noundef nonnull align 8 dereferenceable(1080) %0, ptr noundef nonnull readonly align 8 captures(none) dereferenceable(288) %1, ptr noundef %2) unnamed_addr #4 align 2 {
  tail call void @_ZN7rocksdb29VersionEditHandlerPointInTime20CheckIterationResultERKNS_3log6ReaderEPNS_6StatusE(ptr noundef nonnull align 8 dereferenceable(1017) %0, ptr noundef nonnull align 8 dereferenceable(288) %1, ptr noundef %2)
  %4 = load i8, ptr %2, align 8, !tbaa !44
  %5 = icmp eq i8 %4, 0
  br i1 %5, label %6, label %11

6:                                                ; preds = %3
  %7 = getelementptr inbounds nuw i8, ptr %0, i64 1017
  %8 = load i8, ptr %7, align 1, !tbaa !746
  %9 = icmp eq i8 %8, 0
  br i1 %9, label %10, label %11

10:                                               ; preds = %6
  store i8 1, ptr %7, align 1, !tbaa !746
  br label %11

11:                                               ; preds = %10, %6, %3
  ret void
}